; Function Attrs: mustprogress nofree nounwind willreturn memory(argmem: read) uwtable
define i64 @CORD_len(ptr noundef readonly %0) local_unnamed_addr #10 {
  %2 = icmp eq ptr %0, null
  br i1 %2, label %10, label %3

3:                                                ; preds = %1
  %4 = load i8, ptr %0, align 1, !tbaa !11
  %.not = icmp eq i8 %4, 0
  br i1 %.not, label %7, label %5

5:                                                ; preds = %3
  %6 = tail call i64 @strlen(ptr noundef nonnull dereferenceable(1) %0) #18
  br label %10

7:                                                ; preds = %3
  %8 = getelementptr inbounds nuw i8, ptr %0, i64 8
  %9 = load i64, ptr %8, align 8, !tbaa !17
  br label %10

10:                                               ; preds = %5, %7, %1
  %11 = phi i64 [ 0, %1 ], [ %6, %5 ], [ %9, %7 ]
  ret i64 %11
}